; Function Attrs: mustprogress uwtable
define internal void @_ZN8facebook5velox9functions6window12_GLOBAL__N_117RowNumberFunction5applyERKN5boost13intrusive_ptrINS0_6BufferEEESA_SA_SA_RKNS0_17SelectivityVectorEiRKSt10shared_ptrINS0_10BaseVectorEE(ptr nocapture noundef nonnull align 8 dereferenceable(88) %this, ptr nocapture noundef nonnull readonly align 8 dereferenceable(8) %peerGroupStarts, ptr nocapture nonnull readnone align 8 %0, ptr nocapture nonnull readnone align 8 %1, ptr nocapture nonnull readnone align 8 %2, ptr nocapture nonnull readnone align 8 %validRows, i32 noundef %resultOffset, ptr nocapture noundef nonnull readonly align 8 dereferenceable(16) %result) unnamed_addr #0 align 2 {
entry:
  %resultType_ = getelementptr inbounds i8, ptr %this, i64 8
  %3 = load ptr, ptr %resultType_, align 8
  %kind_.i.i = getelementptr inbounds i8, ptr %3, i64 16
  %4 = load i8, ptr %kind_.i.i, align 8
  %cmp.i = icmp eq i8 %4, 3
  %peerGroupStarts.val = load ptr, ptr %peerGroupStarts, align 8
  %result.val = load ptr, ptr %result, align 8
  %5 = getelementptr i8, ptr %peerGroupStarts.val, i64 24
  %peerGroupStarts.val.val = load i64, ptr %5, align 8
  %div3.i = lshr i64 %peerGroupStarts.val.val, 2
  %conv.i = trunc i64 %div3.i to i32
  %cmp1.i = icmp sgt i32 %conv.i, 0
  br i1 %cmp.i, label %if.then, label %if.else

if.then:                                          ; preds = %entry
  %6 = tail call noundef ptr @__dynamic_cast(ptr nonnull %result.val, ptr nonnull @_ZTIN8facebook5velox10BaseVectorE, ptr nonnull @_ZTIN8facebook5velox10FlatVectorIiEE, i64 0) #16
  %call5.i = tail call noundef ptr @_ZN8facebook5velox10FlatVectorIiE16mutableRawValuesEv(ptr noundef nonnull align 8 dereferenceable(200) %6)
  br i1 %cmp1.i, label %for.body.lr.ph.i, label %if.end

for.body.lr.ph.i:                                 ; preds = %if.then
  %rowNumber_.i = getelementptr inbounds i8, ptr %this, i64 80
  %7 = sext i32 %resultOffset to i64
  %wide.trip.count.i = and i64 %div3.i, 2147483647
  %invariant.gep.i = getelementptr i32, ptr %call5.i, i64 %7
  br label %for.body.i

for.body.i:                                       ; preds = %for.body.i, %for.body.lr.ph.i
  %indvars.iv.i = phi i64 [ 0, %for.body.lr.ph.i ], [ %indvars.iv.next.i, %for.body.i ]
  %8 = load i64, ptr %rowNumber_.i, align 8
  %inc.i = add nsw i64 %8, 1
  store i64 %inc.i, ptr %rowNumber_.i, align 8
  %conv6.i = trunc i64 %8 to i32
  %gep.i = getelementptr i32, ptr %invariant.gep.i, i64 %indvars.iv.i
  store i32 %conv6.i, ptr %gep.i, align 4
  %indvars.iv.next.i = add nuw nsw i64 %indvars.iv.i, 1
  %exitcond.not.i = icmp eq i64 %indvars.iv.next.i, %wide.trip.count.i
  br i1 %exitcond.not.i, label %if.end, label %for.body.i, !llvm.loop !22

if.else:                                          ; preds = %entry
  %9 = tail call noundef ptr @__dynamic_cast(ptr nonnull %result.val, ptr nonnull @_ZTIN8facebook5velox10BaseVectorE, ptr nonnull @_ZTIN8facebook5velox10FlatVectorIlEE, i64 0) #16
  %call5.i8 = tail call noundef ptr @_ZN8facebook5velox10FlatVectorIlE16mutableRawValuesEv(ptr noundef nonnull align 8 dereferenceable(216) %9)
  br i1 %cmp1.i, label %for.body.lr.ph.i10, label %if.end

for.body.lr.ph.i10:                               ; preds = %if.else
  %rowNumber_.i11 = getelementptr inbounds i8, ptr %this, i64 80
  %10 = sext i32 %resultOffset to i64
  %wide.trip.count.i12 = and i64 %div3.i, 2147483647
  %invariant.gep.i13 = getelementptr i64, ptr %call5.i8, i64 %10
  br label %for.body.i14

for.body.i14:                                     ; preds = %for.body.i14, %for.body.lr.ph.i10
  %indvars.iv.i15 = phi i64 [ 0, %for.body.lr.ph.i10 ], [ %indvars.iv.next.i18, %for.body.i14 ]
  %11 = load i64, ptr %rowNumber_.i11, align 8
  %inc.i16 = add nsw i64 %11, 1
  store i64 %inc.i16, ptr %rowNumber_.i11, align 8
  %gep.i17 = getelementptr i64, ptr %invariant.gep.i13, i64 %indvars.iv.i15
  store i64 %11, ptr %gep.i17, align 8
  %indvars.iv.next.i18 = add nuw nsw i64 %indvars.iv.i15, 1
  %exitcond.not.i19 = icmp eq i64 %indvars.iv.next.i18, %wide.trip.count.i12
  br i1 %exitcond.not.i19, label %if.end, label %for.body.i14, !llvm.loop !23

if.end:                                           ; preds = %for.body.i14, %for.body.i, %if.else, %if.then
  ret void
}